target datalayout = "e-m:e-p270:32:32-p271:32:32-p272:64:64-i64:64-i128:128-f80:128-n8:16:32:64-S128"
target triple = "x86_64-pc-linux-gnu"

; Function Attrs: nounwind uwtable
define dso_local void @mp_encode_lua_string(ptr noundef %0, ptr noundef %1) #0 {
  %3 = alloca ptr, align 8
  %4 = alloca ptr, align 8
  %5 = alloca i64, align 8
  %6 = alloca ptr, align 8
  store ptr %0, ptr %3, align 8, !tbaa !17
  store ptr %1, ptr %4, align 8, !tbaa !19
  call void @llvm.lifetime.start.p0(i64 8, ptr %5) #6
  call void @llvm.lifetime.start.p0(i64 8, ptr %6) #6
  %7 = load ptr, ptr %3, align 8, !tbaa !17
  %8 = call ptr @lua_tolstring(ptr noundef %7, i32 noundef -1, ptr noundef %5)
  store ptr %8, ptr %6, align 8, !tbaa !10
  %9 = load ptr, ptr %3, align 8, !tbaa !17
  %10 = load ptr, ptr %4, align 8, !tbaa !19
  %11 = load ptr, ptr %6, align 8, !tbaa !10
  %12 = load i64, ptr %5, align 8, !tbaa !8
  call void @mp_encode_bytes(ptr noundef %9, ptr noundef %10, ptr noundef %11, i64 noundef %12)
  call void @llvm.lifetime.end.p0(i64 8, ptr %6) #6
  call void @llvm.lifetime.end.p0(i64 8, ptr %5) #6
  ret void
}