; Function Attrs: nounwind uwtable
define dso_local void @mp_encode_lua_string(ptr noundef %0, ptr noundef captures(none) %1) local_unnamed_addr #2 {
  %3 = alloca i64, align 8
  call void @llvm.lifetime.start.p0(i64 8, ptr nonnull %3) #10
  %4 = call ptr @lua_tolstring(ptr noundef %0, i32 noundef -1, ptr noundef nonnull %3) #10
  %5 = load i64, ptr %3, align 8, !tbaa !22
  call void @mp_encode_bytes(ptr noundef %0, ptr noundef %1, ptr noundef %4, i64 noundef %5)
  call void @llvm.lifetime.end.p0(i64 8, ptr nonnull %3) #10
  ret void
}